; Function Attrs: mustprogress nofree norecurse nosync nounwind memory(argmem: write) uwtable
define hidden noundef ptr @_ZN6google8protobuf17FastHex32ToBufferEjPc(i32 noundef %0, ptr noundef returned writeonly initializes((8, 9)) %1) local_unnamed_addr #16 {
  %3 = zext i32 %0 to i64
  %4 = getelementptr inbounds nuw i8, ptr %1, i64 8
  store i8 0, ptr %4, align 1, !tbaa !11
  br label %.lr.ph.i

.lr.ph.i:                                         ; preds = %.lr.ph.i, %2
  %indvars.iv.i = phi i64 [ 8, %2 ], [ %indvars.iv.next.i, %.lr.ph.i ]
  %.0910.i = phi i64 [ %3, %2 ], [ %9, %.lr.ph.i ]
  %indvars.iv.next.i = add nsw i64 %indvars.iv.i, -1
  %5 = and i64 %.0910.i, 15
  %6 = getelementptr inbounds nuw i8, ptr @_ZZN6google8protobuf7strings8AlphaNumC1ENS1_3HexEE9hexdigits, i64 %5
  %7 = load i8, ptr %6, align 1, !tbaa !11
  %8 = getelementptr inbounds nuw i8, ptr %1, i64 %indvars.iv.next.i
  store i8 %7, ptr %8, align 1, !tbaa !11
  %9 = lshr i64 %.0910.i, 4
  %10 = icmp samesign ugt i64 %indvars.iv.i, 1
  br i1 %10, label %.lr.ph.i, label %_ZN6google8protobuf23InternalFastHexToBufferEmPci.exit, !llvm.loop !72

_ZN6google8protobuf23InternalFastHexToBufferEmPci.exit: ; preds = %.lr.ph.i
  ret ptr %1
}